target datalayout = "e-m:e-p270:32:32-p271:32:32-p272:64:64-i64:64-i128:128-f80:128-n8:16:32:64-S128"
target triple = "x86_64-pc-linux-gnu"

%struct.FullTransactionId = type { i64 }
%struct.pg_atomic_uint32 = type { i32 }
%struct.LWLock = type { i16, %struct.pg_atomic_uint32, %struct.proclist_head }
%struct.proclist_head = type { i32, i32 }
%union.LWLockPadded = type { %struct.LWLock, [112 x i8] }
%struct.TransamVariablesData = type { i32, i32, %struct.FullTransactionId, i32, i32, i32, i32, i32, i32, i32, i32, %struct.FullTransactionId, i64, i32 }

@TransamVariables = dso_local global ptr null, align 8
@MainLWLockArray = external global ptr, align 8

; Function Attrs: nounwind uwtable
define dso_local void @AdvanceOldestClogXid(i32 noundef %0) #0 {
  %2 = alloca i32, align 4
  store i32 %0, ptr %2, align 4
  %3 = load ptr, ptr @MainLWLockArray, align 8
  %4 = getelementptr inbounds %union.LWLockPadded, ptr %3, i64 44
  %5 = call zeroext i1 @LWLockAcquire(ptr noundef %4, i32 noundef 0)
  %6 = load ptr, ptr @TransamVariables, align 8
  %7 = getelementptr inbounds nuw %struct.TransamVariablesData, ptr %6, i32 0, i32 13
  %8 = load i32, ptr %7, align 8
  %9 = load i32, ptr %2, align 4
  %10 = call zeroext i1 @TransactionIdPrecedes(i32 noundef %8, i32 noundef %9)
  br i1 %10, label %11, label %15

11:                                               ; preds = %1
  %12 = load i32, ptr %2, align 4
  %13 = load ptr, ptr @TransamVariables, align 8
  %14 = getelementptr inbounds nuw %struct.TransamVariablesData, ptr %13, i32 0, i32 13
  store i32 %12, ptr %14, align 8
  br label %15

15:                                               ; preds = %11, %1
  %16 = load ptr, ptr @MainLWLockArray, align 8
  %17 = getelementptr inbounds %union.LWLockPadded, ptr %16, i64 44
  call void @LWLockRelease(ptr noundef %17)
  ret void
}