; Function Attrs: nounwind uwtable
define dso_local void @AdvanceOldestClogXid(i32 noundef %0) local_unnamed_addr #1 {
  %2 = load ptr, ptr @MainLWLockArray, align 8
  %3 = getelementptr inbounds nuw i8, ptr %2, i64 5632
  %4 = tail call zeroext i1 @LWLockAcquire(ptr noundef nonnull %3, i32 noundef 0) #8
  %5 = load ptr, ptr @TransamVariables, align 8
  %6 = getelementptr inbounds nuw i8, ptr %5, i64 64
  %7 = load i32, ptr %6, align 8
  %8 = tail call zeroext i1 @TransactionIdPrecedes(i32 noundef %7, i32 noundef %0) #8
  br i1 %8, label %9, label %12

9:                                                ; preds = %1
  %10 = load ptr, ptr @TransamVariables, align 8
  %11 = getelementptr inbounds nuw i8, ptr %10, i64 64
  store i32 %0, ptr %11, align 8
  br label %12

12:                                               ; preds = %9, %1
  %13 = load ptr, ptr @MainLWLockArray, align 8
  %14 = getelementptr inbounds nuw i8, ptr %13, i64 5632
  tail call void @LWLockRelease(ptr noundef nonnull %14) #8
  ret void
}